target datalayout = "e-m:e-p270:32:32-p271:32:32-p272:64:64-i64:64-i128:128-f80:128-n8:16:32:64-S128"
target triple = "x86_64-pc-linux-gnu"

@.str = private unnamed_addr constant [31 x i8] c"../openssl/crypto/asn1/a_int.c\00", align 1
@__func__.c2i_ibuf = private unnamed_addr constant [9 x i8] c"c2i_ibuf\00", align 1

; Function Attrs: nounwind uwtable
define internal void @twos_complement(ptr noundef %0, ptr noundef %1, i64 noundef %2, i8 noundef zeroext %3) #0 {
  %5 = alloca ptr, align 8
  %6 = alloca ptr, align 8
  %7 = alloca i64, align 8
  %8 = alloca i8, align 1
  %9 = alloca i32, align 4
  store ptr %0, ptr %5, align 8, !tbaa !18
  store ptr %1, ptr %6, align 8, !tbaa !18
  store i64 %2, ptr %7, align 8, !tbaa !19
  store i8 %3, ptr %8, align 1, !tbaa !20
  call void @llvm.lifetime.start.p0(i64 4, ptr %9) #4
  %10 = load i8, ptr %8, align 1, !tbaa !20
  %11 = zext i8 %10 to i32
  %12 = and i32 %11, 1
  store i32 %12, ptr %9, align 4, !tbaa !13
  %13 = load i64, ptr %7, align 8, !tbaa !19
  %14 = icmp ne i64 %13, 0
  br i1 %14, label %15, label %22

15:                                               ; preds = %4
  %16 = load i64, ptr %7, align 8, !tbaa !19
  %17 = load ptr, ptr %5, align 8, !tbaa !18
  %18 = getelementptr inbounds nuw i8, ptr %17, i64 %16
  store ptr %18, ptr %5, align 8, !tbaa !18
  %19 = load i64, ptr %7, align 8, !tbaa !19
  %20 = load ptr, ptr %6, align 8, !tbaa !18
  %21 = getelementptr inbounds nuw i8, ptr %20, i64 %19
  store ptr %21, ptr %6, align 8, !tbaa !18
  br label %22

22:                                               ; preds = %15, %4
  br label %23

23:                                               ; preds = %27, %22
  %24 = load i64, ptr %7, align 8, !tbaa !19
  %25 = add i64 %24, -1
  store i64 %25, ptr %7, align 8, !tbaa !19
  %26 = icmp ne i64 %24, 0
  br i1 %26, label %27, label %42

27:                                               ; preds = %23
  %28 = load ptr, ptr %6, align 8, !tbaa !18
  %29 = getelementptr inbounds i8, ptr %28, i32 -1
  store ptr %29, ptr %6, align 8, !tbaa !18
  %30 = load i8, ptr %29, align 1, !tbaa !20
  %31 = zext i8 %30 to i32
  %32 = load i8, ptr %8, align 1, !tbaa !20
  %33 = zext i8 %32 to i32
  %34 = xor i32 %31, %33
  %35 = load i32, ptr %9, align 4, !tbaa !13
  %36 = add i32 %35, %34
  store i32 %36, ptr %9, align 4, !tbaa !13
  %37 = trunc i32 %36 to i8
  %38 = load ptr, ptr %5, align 8, !tbaa !18
  %39 = getelementptr inbounds i8, ptr %38, i32 -1
  store ptr %39, ptr %5, align 8, !tbaa !18
  store i8 %37, ptr %39, align 1, !tbaa !20
  %40 = load i32, ptr %9, align 4, !tbaa !13
  %41 = lshr i32 %40, 8
  store i32 %41, ptr %9, align 4, !tbaa !13
  br label %23, !llvm.loop !34

42:                                               ; preds = %23
  call void @llvm.lifetime.end.p0(i64 4, ptr %9) #4
  ret void
}

; Function Attrs: nounwind uwtable
define internal i64 @c2i_ibuf(ptr noundef %0, ptr noundef %1, ptr noundef %2, i64 noundef %3) #0 {
  %5 = alloca i64, align 8
  %6 = alloca ptr, align 8
  %7 = alloca ptr, align 8
  %8 = alloca ptr, align 8
  %9 = alloca i64, align 8
  %10 = alloca i32, align 4
  %11 = alloca i32, align 4
  %12 = alloca i32, align 4
  %13 = alloca i64, align 8
  store ptr %0, ptr %6, align 8, !tbaa !18
  store ptr %1, ptr %7, align 8, !tbaa !25
  store ptr %2, ptr %8, align 8, !tbaa !18
  store i64 %3, ptr %9, align 8, !tbaa !19
  call void @llvm.lifetime.start.p0(i64 4, ptr %10) #4
  call void @llvm.lifetime.start.p0(i64 4, ptr %11) #4
  %14 = load i64, ptr %9, align 8, !tbaa !19
  %15 = icmp eq i64 %14, 0
  br i1 %15, label %16, label %17

16:                                               ; preds = %4
  call void @ERR_new()
  call void @ERR_set_debug(ptr noundef @.str, i32 noundef 160, ptr noundef @__func__.c2i_ibuf)
  call void (i32, i32, ptr, ...) @ERR_set_error(i32 noundef 13, i32 noundef 222, ptr noundef null)
  store i64 0, ptr %5, align 8
  store i32 1, ptr %12, align 4
  br label %122

17:                                               ; preds = %4
  %18 = load ptr, ptr %8, align 8, !tbaa !18
  %19 = getelementptr inbounds i8, ptr %18, i64 0
  %20 = load i8, ptr %19, align 1, !tbaa !20
  %21 = zext i8 %20 to i32
  %22 = and i32 %21, 128
  store i32 %22, ptr %10, align 4, !tbaa !13
  %23 = load ptr, ptr %7, align 8, !tbaa !25
  %24 = icmp ne ptr %23, null
  br i1 %24, label %25, label %28

25:                                               ; preds = %17
  %26 = load i32, ptr %10, align 4, !tbaa !13
  %27 = load ptr, ptr %7, align 8, !tbaa !25
  store i32 %26, ptr %27, align 4, !tbaa !13
  br label %28

28:                                               ; preds = %25, %17
  %29 = load i64, ptr %9, align 8, !tbaa !19
  %30 = icmp eq i64 %29, 1
  br i1 %30, label %31, label %55

31:                                               ; preds = %28
  %32 = load ptr, ptr %6, align 8, !tbaa !18
  %33 = icmp ne ptr %32, null
  br i1 %33, label %34, label %54

34:                                               ; preds = %31
  %35 = load i32, ptr %10, align 4, !tbaa !13
  %36 = icmp ne i32 %35, 0
  br i1 %36, label %37, label %47

37:                                               ; preds = %34
  %38 = load ptr, ptr %8, align 8, !tbaa !18
  %39 = getelementptr inbounds i8, ptr %38, i64 0
  %40 = load i8, ptr %39, align 1, !tbaa !20
  %41 = zext i8 %40 to i32
  %42 = xor i32 %41, 255
  %43 = add nsw i32 %42, 1
  %44 = trunc i32 %43 to i8
  %45 = load ptr, ptr %6, align 8, !tbaa !18
  %46 = getelementptr inbounds i8, ptr %45, i64 0
  store i8 %44, ptr %46, align 1, !tbaa !20
  br label %53

47:                                               ; preds = %34
  %48 = load ptr, ptr %8, align 8, !tbaa !18
  %49 = getelementptr inbounds i8, ptr %48, i64 0
  %50 = load i8, ptr %49, align 1, !tbaa !20
  %51 = load ptr, ptr %6, align 8, !tbaa !18
  %52 = getelementptr inbounds i8, ptr %51, i64 0
  store i8 %50, ptr %52, align 1, !tbaa !20
  br label %53

53:                                               ; preds = %47, %37
  br label %54

54:                                               ; preds = %53, %31
  store i64 1, ptr %5, align 8
  store i32 1, ptr %12, align 4
  br label %122

55:                                               ; preds = %28
  store i32 0, ptr %11, align 4, !tbaa !13
  %56 = load ptr, ptr %8, align 8, !tbaa !18
  %57 = getelementptr inbounds i8, ptr %56, i64 0
  %58 = load i8, ptr %57, align 1, !tbaa !20
  %59 = zext i8 %58 to i32
  %60 = icmp eq i32 %59, 0
  br i1 %60, label %61, label %62

61:                                               ; preds = %55
  store i32 1, ptr %11, align 4, !tbaa !13
  br label %89

62:                                               ; preds = %55
  %63 = load ptr, ptr %8, align 8, !tbaa !18
  %64 = getelementptr inbounds i8, ptr %63, i64 0
  %65 = load i8, ptr %64, align 1, !tbaa !20
  %66 = zext i8 %65 to i32
  %67 = icmp eq i32 %66, 255
  br i1 %67, label %68, label %88

68:                                               ; preds = %62
  call void @llvm.lifetime.start.p0(i64 8, ptr %13) #4
  store i32 0, ptr %11, align 4, !tbaa !13
  store i64 1, ptr %13, align 8, !tbaa !19
  br label %69

69:                                               ; preds = %81, %68
  %70 = load i64, ptr %13, align 8, !tbaa !19
  %71 = load i64, ptr %9, align 8, !tbaa !19
  %72 = icmp ult i64 %70, %71
  br i1 %72, label %73, label %84

73:                                               ; preds = %69
  %74 = load ptr, ptr %8, align 8, !tbaa !18
  %75 = load i64, ptr %13, align 8, !tbaa !19
  %76 = getelementptr inbounds nuw i8, ptr %74, i64 %75
  %77 = load i8, ptr %76, align 1, !tbaa !20
  %78 = zext i8 %77 to i32
  %79 = load i32, ptr %11, align 4, !tbaa !13
  %80 = or i32 %79, %78
  store i32 %80, ptr %11, align 4, !tbaa !13
  br label %81

81:                                               ; preds = %73
  %82 = load i64, ptr %13, align 8, !tbaa !19
  %83 = add i64 %82, 1
  store i64 %83, ptr %13, align 8, !tbaa !19
  br label %69, !llvm.loop !27

84:                                               ; preds = %69
  %85 = load i32, ptr %11, align 4, !tbaa !13
  %86 = icmp ne i32 %85, 0
  %87 = select i1 %86, i32 1, i32 0
  store i32 %87, ptr %11, align 4, !tbaa !13
  call void @llvm.lifetime.end.p0(i64 8, ptr %13) #4
  br label %88

88:                                               ; preds = %84, %62
  br label %89

89:                                               ; preds = %88, %61
  %90 = load i32, ptr %11, align 4, !tbaa !13
  %91 = icmp ne i32 %90, 0
  br i1 %91, label %92, label %101

92:                                               ; preds = %89
  %93 = load i32, ptr %10, align 4, !tbaa !13
  %94 = load ptr, ptr %8, align 8, !tbaa !18
  %95 = getelementptr inbounds i8, ptr %94, i64 1
  %96 = load i8, ptr %95, align 1, !tbaa !20
  %97 = zext i8 %96 to i32
  %98 = and i32 %97, 128
  %99 = icmp eq i32 %93, %98
  br i1 %99, label %100, label %101

100:                                              ; preds = %92
  call void @ERR_new()
  call void @ERR_set_debug(ptr noundef @.str, i32 noundef 193, ptr noundef @__func__.c2i_ibuf)
  call void (i32, i32, ptr, ...) @ERR_set_error(i32 noundef 13, i32 noundef 221, ptr noundef null)
  store i64 0, ptr %5, align 8
  store i32 1, ptr %12, align 4
  br label %122

101:                                              ; preds = %92, %89
  %102 = load i32, ptr %11, align 4, !tbaa !13
  %103 = load ptr, ptr %8, align 8, !tbaa !18
  %104 = sext i32 %102 to i64
  %105 = getelementptr inbounds i8, ptr %103, i64 %104
  store ptr %105, ptr %8, align 8, !tbaa !18
  %106 = load i32, ptr %11, align 4, !tbaa !13
  %107 = sext i32 %106 to i64
  %108 = load i64, ptr %9, align 8, !tbaa !19
  %109 = sub i64 %108, %107
  store i64 %109, ptr %9, align 8, !tbaa !19
  %110 = load ptr, ptr %6, align 8, !tbaa !18
  %111 = icmp ne ptr %110, null
  br i1 %111, label %112, label %120

112:                                              ; preds = %101
  %113 = load ptr, ptr %6, align 8, !tbaa !18
  %114 = load ptr, ptr %8, align 8, !tbaa !18
  %115 = load i64, ptr %9, align 8, !tbaa !19
  %116 = load i32, ptr %10, align 4, !tbaa !13
  %117 = icmp ne i32 %116, 0
  %118 = select i1 %117, i32 255, i32 0
  %119 = trunc i32 %118 to i8
  call void @twos_complement(ptr noundef %113, ptr noundef %114, i64 noundef %115, i8 noundef zeroext %119)
  br label %120

120:                                              ; preds = %112, %101
  %121 = load i64, ptr %9, align 8, !tbaa !19
  store i64 %121, ptr %5, align 8
  store i32 1, ptr %12, align 4
  br label %122

122:                                              ; preds = %120, %100, %54, %16
  call void @llvm.lifetime.end.p0(i64 4, ptr %11) #4
  call void @llvm.lifetime.end.p0(i64 4, ptr %10) #4
  %123 = load i64, ptr %5, align 8
  ret i64 %123
}