; Function Attrs: nounwind uwtable
define internal fastcc noundef i64 @c2i_ibuf(ptr noundef writeonly captures(address_is_null) %0, ptr noundef writeonly captures(address_is_null) %1, ptr noundef readonly captures(none) %2, i64 noundef %3) unnamed_addr #0 {
  %5 = icmp eq i64 %3, 0
  br i1 %5, label %6, label %7

6:                                                ; preds = %4
  tail call void @ERR_new() #6
  tail call void @ERR_set_debug(ptr noundef nonnull @.str, i32 noundef 160, ptr noundef nonnull @__func__.c2i_ibuf) #6
  tail call void (i32, i32, ptr, ...) @ERR_set_error(i32 noundef 13, i32 noundef 222, ptr noundef null) #6
  br label %twos_complement.exit

7:                                                ; preds = %4
  %8 = load i8, ptr %2, align 1, !tbaa !13
  %9 = and i8 %8, -128
  %.not = icmp eq ptr %1, null
  br i1 %.not, label %12, label %10

10:                                               ; preds = %7
  %11 = zext i8 %9 to i32
  store i32 %11, ptr %1, align 4, !tbaa !20
  br label %12

12:                                               ; preds = %10, %7
  %13 = icmp eq i64 %3, 1
  br i1 %13, label %14, label %20

14:                                               ; preds = %12
  %.not45 = icmp eq ptr %0, null
  br i1 %.not45, label %twos_complement.exit, label %15

15:                                               ; preds = %14
  %.not46 = icmp eq i8 %9, 0
  %16 = load i8, ptr %2, align 1, !tbaa !13
  br i1 %.not46, label %19, label %17

17:                                               ; preds = %15
  %18 = sub i8 0, %16
  store i8 %18, ptr %0, align 1, !tbaa !13
  br label %twos_complement.exit

19:                                               ; preds = %15
  store i8 %16, ptr %0, align 1, !tbaa !13
  br label %twos_complement.exit

20:                                               ; preds = %12
  %21 = load i8, ptr %2, align 1, !tbaa !13
  switch i8 %21, label %.thread [
    i8 0, label %.thread50
    i8 -1, label %.lr.ph
  ]

.lr.ph:                                           ; preds = %20, %.lr.ph
  %.055 = phi i64 [ %26, %.lr.ph ], [ 1, %20 ]
  %.154 = phi i32 [ %25, %.lr.ph ], [ 0, %20 ]
  %22 = getelementptr inbounds nuw i8, ptr %2, i64 %.055
  %23 = load i8, ptr %22, align 1, !tbaa !13
  %24 = zext i8 %23 to i32
  %25 = or i32 %.154, %24
  %26 = add nuw i64 %.055, 1
  %exitcond.not = icmp eq i64 %26, %3
  br i1 %exitcond.not, label %._crit_edge, label %.lr.ph, !llvm.loop !21

._crit_edge:                                      ; preds = %.lr.ph
  %.not41.not = icmp eq i32 %25, 0
  br i1 %.not41.not, label %.thread, label %.thread50

.thread50:                                        ; preds = %20, %._crit_edge
  %27 = getelementptr inbounds nuw i8, ptr %2, i64 1
  %28 = load i8, ptr %27, align 1, !tbaa !13
  %29 = and i8 %28, -128
  %30 = icmp eq i8 %9, %29
  br i1 %30, label %31, label %.thread

31:                                               ; preds = %.thread50
  tail call void @ERR_new() #6
  tail call void @ERR_set_debug(ptr noundef nonnull @.str, i32 noundef 193, ptr noundef nonnull @__func__.c2i_ibuf) #6
  tail call void (i32, i32, ptr, ...) @ERR_set_error(i32 noundef 13, i32 noundef 221, ptr noundef null) #6
  br label %twos_complement.exit

.thread:                                          ; preds = %20, %.thread50, %._crit_edge
  %.03449.neg = phi i64 [ -1, %.thread50 ], [ 0, %._crit_edge ], [ 0, %20 ]
  %32 = add i64 %.03449.neg, %3
  %.not43 = icmp eq ptr %0, null
  br i1 %.not43, label %twos_complement.exit, label %33

33:                                               ; preds = %.thread
  %sext = ashr i8 %8, 7
  %.not1617.i = icmp eq i64 %32, 0
  br i1 %.not1617.i, label %twos_complement.exit, label %.lr.ph.preheader.i

.lr.ph.preheader.i:                               ; preds = %33
  %34 = getelementptr inbounds nuw i8, ptr %2, i64 %3
  %35 = getelementptr inbounds nuw i8, ptr %0, i64 %32
  %36 = lshr i8 %8, 7
  %37 = zext nneg i8 %36 to i32
  br label %.lr.ph.i

.lr.ph.i:                                         ; preds = %.lr.ph.i, %.lr.ph.preheader.i
  %.021.i = phi i32 [ %46, %.lr.ph.i ], [ %37, %.lr.ph.preheader.i ]
  %.120.i = phi ptr [ %45, %.lr.ph.i ], [ %35, %.lr.ph.preheader.i ]
  %.01219.i = phi i64 [ %38, %.lr.ph.i ], [ %32, %.lr.ph.preheader.i ]
  %.11418.i = phi ptr [ %39, %.lr.ph.i ], [ %34, %.lr.ph.preheader.i ]
  %38 = add i64 %.01219.i, -1
  %39 = getelementptr inbounds i8, ptr %.11418.i, i64 -1
  %40 = load i8, ptr %39, align 1, !tbaa !13
  %41 = xor i8 %40, %sext
  %42 = zext i8 %41 to i32
  %43 = add nuw nsw i32 %.021.i, %42
  %44 = trunc i32 %43 to i8
  %45 = getelementptr inbounds i8, ptr %.120.i, i64 -1
  store i8 %44, ptr %45, align 1, !tbaa !13
  %46 = lshr i32 %43, 8
  %.not16.i = icmp eq i64 %38, 0
  br i1 %.not16.i, label %twos_complement.exit, label %.lr.ph.i, !llvm.loop !17

twos_complement.exit:                             ; preds = %.lr.ph.i, %33, %.thread, %14, %19, %17, %31, %6
  %.035 = phi i64 [ 0, %6 ], [ 0, %31 ], [ 1, %17 ], [ 1, %19 ], [ 1, %14 ], [ %32, %.thread ], [ 0, %33 ], [ %32, %.lr.ph.i ]
  ret i64 %.035
}